ccopy_reg
_reconstructor
p0
(cnetworkx.classes.graph
Graph
p1
c__builtin__
object
p2
Ntp3
Rp4
(dp5
S'node'
p6
(dp7
I0
(dp8
S'color'
p9
S'blue'
p10
ssI1
(dp11
g9
S'red'
p12
ssI2
(dp13
g9
S'purple'
p14
ssI3
(dp15
g9
g10
ssI4
(dp16
g9
g14
ssI5
(dp17
g9
g12
ssI6
(dp18
g9
g14
ssI7
(dp19
g9
g12
ssI8
(dp20
g9
g10
ssI9
(dp21
g9
g14
ssI10
(dp22
g9
g12
ssI11
(dp23
g9
g10
ssI12
(dp24
g9
g10
ssI13
(dp25
g9
g14
ssI14
(dp26
g9
g10
ssI15
(dp27
g9
g12
ssI16
(dp28
g9
g10
ssI17
(dp29
g9
g12
ssI18
(dp30
g9
g14
ssI19
(dp31
g9
g10
ssI20
(dp32
g9
g14
ssI21
(dp33
g9
g12
ssI22
(dp34
g9
g10
ssI23
(dp35
g9
g14
ssI24
(dp36
g9
g12
ssI25
(dp37
g9
g12
ssI26
(dp38
g9
g14
ssI27
(dp39
g9
g10
ssI28
(dp40
g9
g14
ssI29
(dp41
g9
g12
ssI30
(dp42
g9
g14
ssI31
(dp43
g9
g10
ssI32
(dp44
g9
g12
ssI33
(dp45
g9
g14
ssI34
(dp46
g9
g14
ssI35
(dp47
g9
g10
ssI36
(dp48
g9
g12
ssI37
(dp49
g9
g10
ssI38
(dp50
g9
g14
ssI39
(dp51
g9
g12
ssI40
(dp52
g9
g10
ssI41
(dp53
g9
g10
ssI42
(dp54
g9
g14
ssI43
(dp55
g9
g12
ssI44
(dp56
g9
g14
ssI45
(dp57
g9
g12
ssI46
(dp58
g9
g10
ssI47
(dp59
g9
g14
ssI48
(dp60
g9
g10
ssI49
(dp61
g9
g12
ssI50
(dp62
g9
g14
ssI51
(dp63
g9
g10
sssS'node_dict_factory'
p64
c__builtin__
dict
p65
sS'edge_attr_dict_factory'
p66
g65
sS'edge'
p67
(dp68
I0
(dp69
I1
(dp70
sI2
(dp71
ssI1
(dp72
I0
g70
sI2
(dp73
sI3
(dp74
ssI2
(dp75
I0
g71
sI1
g73
sI51
(dp76
ssI3
(dp77
I1
g74
sI4
(dp78
sI5
(dp79
ssI4
(dp80
I3
g78
sI5
(dp81
ssI5
(dp82
I27
(dp83
sI3
g79
sI4
g81
ssI6
(dp84
I8
(dp85
sI51
(dp86
sI7
(dp87
ssI7
(dp88
I51
(dp89
sI6
g87
ssI8
(dp90
I9
(dp91
sI10
(dp92
sI6
g85
ssI9
(dp93
I8
g91
sI10
(dp94
ssI10
(dp95
I8
g92
sI9
g94
sI11
(dp96
ssI11
(dp97
I10
g96
sI13
(dp98
sI15
(dp99
ssI12
(dp100
I13
(dp101
ssI13
(dp102
I17
(dp103
sI11
g98
sI12
g101
sI14
(dp104
sI15
(dp105
ssI14
(dp106
I17
(dp107
sI18
(dp108
sI13
g104
ssI15
(dp109
I16
(dp110
sI33
(dp111
sI11
g99
sI13
g105
ssI16
(dp112
I25
(dp113
sI26
(dp114
sI15
g110
ssI17
(dp115
I18
(dp116
sI19
(dp117
sI13
g103
sI14
g107
ssI18
(dp118
I17
g116
sI14
g108
ssI19
(dp119
I17
g117
sI20
(dp120
sI21
(dp121
ssI20
(dp122
I19
g120
sI21
(dp123
ssI21
(dp124
I19
g121
sI20
g123
sI22
(dp125
ssI22
(dp126
I24
(dp127
sI25
(dp128
sI21
g125
sI23
(dp129
ssI23
(dp130
I24
(dp131
sI22
g129
ssI24
(dp132
I22
g127
sI23
g131
ssI25
(dp133
I16
g113
sI26
(dp134
sI22
g128
ssI26
(dp135
I16
g114
sI25
g134
ssI27
(dp136
I28
(dp137
sI29
(dp138
sI30
(dp139
sI5
g83
ssI28
(dp140
I27
g137
ssI29
(dp141
I27
g138
sI35
(dp142
sI30
(dp143
ssI30
(dp144
I32
(dp145
sI27
g139
sI29
g143
ssI31
(dp146
I32
(dp147
sI33
(dp148
ssI32
(dp149
I33
(dp150
sI34
(dp151
sI35
(dp152
sI30
g145
sI31
g147
ssI33
(dp153
I32
g150
sI31
g148
sI15
g111
ssI34
(dp154
I32
g151
sI36
(dp155
ssI35
(dp156
I32
g152
sI36
(dp157
sI29
g142
ssI36
(dp158
I34
g155
sI35
g157
sI37
(dp159
ssI37
(dp160
I36
g159
sI38
(dp161
sI39
(dp162
ssI38
(dp163
I41
(dp164
sI37
g161
sI39
(dp165
ssI39
(dp166
I40
(dp167
sI37
g162
sI38
g165
ssI40
(dp168
I44
(dp169
sI45
(dp170
sI39
g167
ssI41
(dp171
I42
(dp172
sI43
(dp173
sI38
g164
ssI42
(dp174
I41
g172
sI43
(dp175
ssI43
(dp176
I41
g173
sI42
g175
sI44
(dp177
sI46
(dp178
ssI44
(dp179
I40
g169
sI43
g177
sI45
(dp180
sI46
(dp181
ssI45
(dp182
I40
g170
sI44
g180
sI46
(dp183
sI47
(dp184
ssI46
(dp185
I43
g178
sI44
g181
sI45
g183
sI47
(dp186
ssI47
(dp187
I48
(dp188
sI45
g184
sI46
g186
ssI48
(dp189
I49
(dp190
sI50
(dp191
sI47
g188
ssI49
(dp192
I48
g190
sI50
(dp193
ssI50
(dp194
I48
g191
sI49
g193
ssI51
(dp195
I2
g76
sI6
g86
sI7
g89
sssS'graph'
p196
(dp197
sS'adjlist_dict_factory'
p198
g65
sS'adj'
p199
g68
sb.